target datalayout = "e-m:e-p270:32:32-p271:32:32-p272:64:64-i64:64-i128:128-f80:128-n8:16:32:64-S128"
target triple = "x86_64-pc-linux-gnu"

%struct.STEAM_RemoteStorage = type { ptr, ptr, ptr, ptr, ptr, ptr, ptr, ptr, ptr, ptr }
%struct.SDL_PathInfo = type { i32, i64, i64, i64, i64 }

@.str.21 = private unnamed_addr constant [31 x i8] c"SteamRemoteStorage unavailable\00", align 1

; Function Attrs: nounwind uwtable
define internal zeroext i1 @STEAM_GetStoragePathInfo(ptr noundef %0, ptr noundef %1, ptr noundef %2) #0 {
  %4 = alloca i1, align 1
  %5 = alloca ptr, align 8
  %6 = alloca ptr, align 8
  %7 = alloca ptr, align 8
  %8 = alloca ptr, align 8
  %9 = alloca ptr, align 8
  %10 = alloca i32, align 4
  store ptr %0, ptr %5, align 8
  store ptr %1, ptr %6, align 8
  store ptr %2, ptr %7, align 8
  call void @llvm.lifetime.start.p0(i64 8, ptr %8) #4
  %11 = load ptr, ptr %5, align 8
  store ptr %11, ptr %8, align 8
  call void @llvm.lifetime.start.p0(i64 8, ptr %9) #4
  %12 = load ptr, ptr %8, align 8
  %13 = getelementptr inbounds nuw %struct.STEAM_RemoteStorage, ptr %12, i32 0, i32 1
  %14 = load ptr, ptr %13, align 8
  %15 = call ptr %14()
  store ptr %15, ptr %9, align 8
  %16 = load ptr, ptr %9, align 8
  %17 = icmp eq ptr %16, null
  br i1 %17, label %18, label %20

18:                                               ; preds = %3
  %19 = call zeroext i1 (ptr, ...) @SDL_SetError_REAL(ptr noundef @.str.21)
  store i1 %19, ptr %4, align 1
  store i32 1, ptr %10, align 4
  br label %37

20:                                               ; preds = %3
  %21 = load ptr, ptr %7, align 8
  %22 = icmp ne ptr %21, null
  br i1 %22, label %23, label %36

23:                                               ; preds = %20
  %24 = load ptr, ptr %7, align 8
  call void @llvm.memset.p0.i64(ptr align 8 %24, i8 0, i64 40, i1 false)
  %25 = load ptr, ptr %7, align 8
  %26 = getelementptr inbounds nuw %struct.SDL_PathInfo, ptr %25, i32 0, i32 0
  store i32 1, ptr %26, align 8
  %27 = load ptr, ptr %8, align 8
  %28 = getelementptr inbounds nuw %struct.STEAM_RemoteStorage, ptr %27, i32 0, i32 6
  %29 = load ptr, ptr %28, align 8
  %30 = load ptr, ptr %9, align 8
  %31 = load ptr, ptr %6, align 8
  %32 = call i32 %29(ptr noundef %30, ptr noundef %31)
  %33 = sext i32 %32 to i64
  %34 = load ptr, ptr %7, align 8
  %35 = getelementptr inbounds nuw %struct.SDL_PathInfo, ptr %34, i32 0, i32 1
  store i64 %33, ptr %35, align 8
  br label %36

36:                                               ; preds = %23, %20
  store i1 true, ptr %4, align 1
  store i32 1, ptr %10, align 4
  br label %37

37:                                               ; preds = %36, %18
  call void @llvm.lifetime.end.p0(i64 8, ptr %9) #4
  call void @llvm.lifetime.end.p0(i64 8, ptr %8) #4
  %38 = load i1, ptr %4, align 1
  ret i1 %38
}