; Function Attrs: nounwind uwtable
define internal zeroext i1 @STEAM_GetStoragePathInfo(ptr noundef readonly captures(none) %0, ptr noundef %1, ptr noundef writeonly captures(address_is_null) %2) #0 {
  %4 = getelementptr inbounds nuw i8, ptr %0, i64 8
  %5 = load ptr, ptr %4, align 8
  %6 = tail call ptr %5() #5
  %7 = icmp eq ptr %6, null
  br i1 %7, label %8, label %10

8:                                                ; preds = %3
  %9 = tail call zeroext i1 (ptr, ...) @SDL_SetError_REAL(ptr noundef nonnull @.str.21) #5
  br label %17

10:                                               ; preds = %3
  %.not = icmp eq ptr %2, null
  br i1 %.not, label %17, label %11

11:                                               ; preds = %10
  tail call void @llvm.memset.p0.i64(ptr noundef nonnull align 8 dereferenceable(40) %2, i8 0, i64 40, i1 false)
  store i32 1, ptr %2, align 8
  %12 = getelementptr inbounds nuw i8, ptr %0, i64 48
  %13 = load ptr, ptr %12, align 8
  %14 = tail call i32 %13(ptr noundef nonnull %6, ptr noundef %1) #5
  %15 = sext i32 %14 to i64
  %16 = getelementptr inbounds nuw i8, ptr %2, i64 8
  store i64 %15, ptr %16, align 8
  br label %17

17:                                               ; preds = %10, %11, %8
  %.0 = phi i1 [ %9, %8 ], [ true, %11 ], [ true, %10 ]
  ret i1 %.0
}